target datalayout = "e-m:e-p270:32:32-p271:32:32-p272:64:64-i64:64-i128:128-f80:128-n8:16:32:64-S128"
target triple = "x86_64-pc-linux-gnu"

@XLOGbuffers = dso_local global i32 -1, align 4
@wal_segment_size = dso_local global i32 16777216, align 4
@NBuffers = external global i32, align 4

; Function Attrs: nounwind uwtable
define internal i32 @XLOGChooseNumBuffers() #0 {
  %1 = alloca i32, align 4
  call void @llvm.lifetime.start.p0(i64 4, ptr %1) #16
  %2 = load i32, ptr @NBuffers, align 4
  %3 = sdiv i32 %2, 32
  store i32 %3, ptr %1, align 4
  %4 = load i32, ptr %1, align 4
  %5 = load i32, ptr @wal_segment_size, align 4
  %6 = sdiv i32 %5, 8192
  %7 = icmp sgt i32 %4, %6
  br i1 %7, label %8, label %11

8:                                                ; preds = %0
  %9 = load i32, ptr @wal_segment_size, align 4
  %10 = sdiv i32 %9, 8192
  store i32 %10, ptr %1, align 4
  br label %11

11:                                               ; preds = %8, %0
  %12 = load i32, ptr %1, align 4
  %13 = icmp slt i32 %12, 8
  br i1 %13, label %14, label %15

14:                                               ; preds = %11
  store i32 8, ptr %1, align 4
  br label %15

15:                                               ; preds = %14, %11
  %16 = load i32, ptr %1, align 4
  call void @llvm.lifetime.end.p0(i64 4, ptr %1) #16
  ret i32 %16
}

; Function Attrs: nounwind uwtable
define dso_local zeroext i1 @check_wal_buffers(ptr noundef %0, ptr noundef %1, i32 noundef %2) #0 {
  %4 = alloca i1, align 1
  %5 = alloca ptr, align 8
  %6 = alloca ptr, align 8
  %7 = alloca i32, align 4
  store ptr %0, ptr %5, align 8
  store ptr %1, ptr %6, align 8
  store i32 %2, ptr %7, align 4
  %8 = load ptr, ptr %5, align 8
  %9 = load i32, ptr %8, align 4
  %10 = icmp eq i32 %9, -1
  br i1 %10, label %11, label %18

11:                                               ; preds = %3
  %12 = load i32, ptr @XLOGbuffers, align 4
  %13 = icmp eq i32 %12, -1
  br i1 %13, label %14, label %15

14:                                               ; preds = %11
  store i1 true, ptr %4, align 1
  br label %25

15:                                               ; preds = %11
  %16 = call i32 @XLOGChooseNumBuffers()
  %17 = load ptr, ptr %5, align 8
  store i32 %16, ptr %17, align 4
  br label %18

18:                                               ; preds = %15, %3
  %19 = load ptr, ptr %5, align 8
  %20 = load i32, ptr %19, align 4
  %21 = icmp slt i32 %20, 4
  br i1 %21, label %22, label %24

22:                                               ; preds = %18
  %23 = load ptr, ptr %5, align 8
  store i32 4, ptr %23, align 4
  br label %24

24:                                               ; preds = %22, %18
  store i1 true, ptr %4, align 1
  br label %25

25:                                               ; preds = %24, %14
  %26 = load i1, ptr %4, align 1
  ret i1 %26
}