; Function Attrs: mustprogress nofree norecurse nosync nounwind willreturn memory(read, argmem: readwrite, inaccessiblemem: none) uwtable
define dso_local noundef zeroext i1 @check_wal_buffers(ptr noundef captures(none) %0, ptr noundef readnone captures(none) %1, i32 noundef %2) local_unnamed_addr #12 {
  %4 = load i32, ptr %0, align 4
  %5 = icmp eq i32 %4, -1
  br i1 %5, label %6, label %13

6:                                                ; preds = %3
  %7 = load i32, ptr @XLOGbuffers, align 4
  %8 = icmp eq i32 %7, -1
  br i1 %8, label %15, label %.thread

.thread:                                          ; preds = %6
  %9 = load i32, ptr @NBuffers, align 4
  %10 = sdiv i32 %9, 32
  %11 = load i32, ptr @wal_segment_size, align 4
  %12 = sdiv i32 %11, 8192
  %spec.select.i = tail call i32 @llvm.smin.i32(i32 %10, i32 %12)
  %spec.store.select.i = tail call range(i32 8, 262144) i32 @llvm.smax.i32(i32 %spec.select.i, i32 8)
  br label %.sink.split

13:                                               ; preds = %3
  %14 = icmp slt i32 %4, 4
  br i1 %14, label %.sink.split, label %15

.sink.split:                                      ; preds = %13, %.thread
  %spec.store.select.i.sink = phi i32 [ %spec.store.select.i, %.thread ], [ 4, %13 ]
  store i32 %spec.store.select.i.sink, ptr %0, align 4
  br label %15

15:                                               ; preds = %.sink.split, %13, %6
  ret i1 true
}